target datalayout = "e-m:e-p270:32:32-p271:32:32-p272:64:64-i64:64-i128:128-f80:128-n8:16:32:64-S128"
target triple = "x86_64-pc-linux-gnu"

%struct.vorbis_floor1_entry = type { i16, i16, i16, i16 }

; Function Attrs: nounwind uwtable
define void @ff_vorbis_floor1_render_list(ptr noundef %0, i32 noundef %1, ptr noundef %2, ptr noundef %3, i32 noundef %4, ptr noundef %5, i32 noundef %6) #0 {
  %8 = alloca ptr, align 8
  %9 = alloca i32, align 4
  %10 = alloca ptr, align 8
  %11 = alloca ptr, align 8
  %12 = alloca i32, align 4
  %13 = alloca ptr, align 8
  %14 = alloca i32, align 4
  %15 = alloca i32, align 4
  %16 = alloca i32, align 4
  %17 = alloca i32, align 4
  %18 = alloca i32, align 4
  %19 = alloca i32, align 4
  %20 = alloca i32, align 4
  %21 = alloca i32, align 4
  store ptr %0, ptr %8, align 8, !tbaa !25
  store i32 %1, ptr %9, align 4, !tbaa !4
  store ptr %2, ptr %10, align 8, !tbaa !37
  store ptr %3, ptr %11, align 8, !tbaa !14
  store i32 %4, ptr %12, align 4, !tbaa !4
  store ptr %5, ptr %13, align 8, !tbaa !39
  store i32 %6, ptr %14, align 4, !tbaa !4
  call void @llvm.lifetime.start.p0(i64 4, ptr %15) #6
  call void @llvm.lifetime.start.p0(i64 4, ptr %16) #6
  call void @llvm.lifetime.start.p0(i64 4, ptr %17) #6
  store i32 0, ptr %15, align 4, !tbaa !4
  %22 = load ptr, ptr %10, align 8, !tbaa !37
  %23 = getelementptr inbounds i16, ptr %22, i64 0
  %24 = load i16, ptr %23, align 2, !tbaa !41
  %25 = zext i16 %24 to i32
  %26 = load i32, ptr %12, align 4, !tbaa !4
  %27 = mul nsw i32 %25, %26
  store i32 %27, ptr %16, align 4, !tbaa !4
  store i32 1, ptr %17, align 4, !tbaa !4
  br label %28

28:                                               ; preds = %91, %7
  %29 = load i32, ptr %17, align 4, !tbaa !4
  %30 = load i32, ptr %9, align 4, !tbaa !4
  %31 = icmp slt i32 %29, %30
  br i1 %31, label %32, label %94

32:                                               ; preds = %28
  call void @llvm.lifetime.start.p0(i64 4, ptr %18) #6
  %33 = load ptr, ptr %8, align 8, !tbaa !25
  %34 = load i32, ptr %17, align 4, !tbaa !4
  %35 = sext i32 %34 to i64
  %36 = getelementptr inbounds %struct.vorbis_floor1_entry, ptr %33, i64 %35
  %37 = getelementptr inbounds nuw %struct.vorbis_floor1_entry, ptr %36, i32 0, i32 1
  %38 = load i16, ptr %37, align 2, !tbaa !27
  %39 = zext i16 %38 to i32
  store i32 %39, ptr %18, align 4, !tbaa !4
  %40 = load ptr, ptr %11, align 8, !tbaa !14
  %41 = load i32, ptr %18, align 4, !tbaa !4
  %42 = sext i32 %41 to i64
  %43 = getelementptr inbounds i32, ptr %40, i64 %42
  %44 = load i32, ptr %43, align 4, !tbaa !4
  %45 = icmp ne i32 %44, 0
  br i1 %45, label %46, label %82

46:                                               ; preds = %32
  call void @llvm.lifetime.start.p0(i64 4, ptr %19) #6
  %47 = load ptr, ptr %8, align 8, !tbaa !25
  %48 = load i32, ptr %18, align 4, !tbaa !4
  %49 = sext i32 %48 to i64
  %50 = getelementptr inbounds %struct.vorbis_floor1_entry, ptr %47, i64 %49
  %51 = getelementptr inbounds nuw %struct.vorbis_floor1_entry, ptr %50, i32 0, i32 0
  %52 = load i16, ptr %51, align 2, !tbaa !32
  %53 = zext i16 %52 to i32
  store i32 %53, ptr %19, align 4, !tbaa !4
  call void @llvm.lifetime.start.p0(i64 4, ptr %20) #6
  %54 = load ptr, ptr %10, align 8, !tbaa !37
  %55 = load i32, ptr %18, align 4, !tbaa !4
  %56 = sext i32 %55 to i64
  %57 = getelementptr inbounds i16, ptr %54, i64 %56
  %58 = load i16, ptr %57, align 2, !tbaa !41
  %59 = zext i16 %58 to i32
  %60 = load i32, ptr %12, align 4, !tbaa !4
  %61 = mul nsw i32 %59, %60
  store i32 %61, ptr %20, align 4, !tbaa !4
  %62 = load i32, ptr %15, align 4, !tbaa !4
  %63 = load i32, ptr %14, align 4, !tbaa !4
  %64 = icmp slt i32 %62, %63
  br i1 %64, label %65, label %79

65:                                               ; preds = %46
  %66 = load i32, ptr %15, align 4, !tbaa !4
  %67 = load i32, ptr %16, align 4, !tbaa !4
  %68 = load i32, ptr %19, align 4, !tbaa !4
  %69 = load i32, ptr %14, align 4, !tbaa !4
  %70 = icmp sgt i32 %68, %69
  br i1 %70, label %71, label %73

71:                                               ; preds = %65
  %72 = load i32, ptr %14, align 4, !tbaa !4
  br label %75

73:                                               ; preds = %65
  %74 = load i32, ptr %19, align 4, !tbaa !4
  br label %75

75:                                               ; preds = %73, %71
  %76 = phi i32 [ %72, %71 ], [ %74, %73 ]
  %77 = load i32, ptr %20, align 4, !tbaa !4
  %78 = load ptr, ptr %13, align 8, !tbaa !39
  call void @render_line(i32 noundef %66, i32 noundef %67, i32 noundef %76, i32 noundef %77, ptr noundef %78)
  br label %79

79:                                               ; preds = %75, %46
  %80 = load i32, ptr %19, align 4, !tbaa !4
  store i32 %80, ptr %15, align 4, !tbaa !4
  %81 = load i32, ptr %20, align 4, !tbaa !4
  store i32 %81, ptr %16, align 4, !tbaa !4
  call void @llvm.lifetime.end.p0(i64 4, ptr %20) #6
  call void @llvm.lifetime.end.p0(i64 4, ptr %19) #6
  br label %82

82:                                               ; preds = %79, %32
  %83 = load i32, ptr %15, align 4, !tbaa !4
  %84 = load i32, ptr %14, align 4, !tbaa !4
  %85 = icmp sge i32 %83, %84
  br i1 %85, label %86, label %87

86:                                               ; preds = %82
  store i32 2, ptr %21, align 4
  br label %88

87:                                               ; preds = %82
  store i32 0, ptr %21, align 4
  br label %88

88:                                               ; preds = %87, %86
  call void @llvm.lifetime.end.p0(i64 4, ptr %18) #6
  %89 = load i32, ptr %21, align 4
  switch i32 %89, label %105 [
    i32 0, label %90
    i32 2, label %94
  ]

90:                                               ; preds = %88
  br label %91

91:                                               ; preds = %90
  %92 = load i32, ptr %17, align 4, !tbaa !4
  %93 = add nsw i32 %92, 1
  store i32 %93, ptr %17, align 4, !tbaa !4
  br label %28, !llvm.loop !42

94:                                               ; preds = %88, %28
  %95 = load i32, ptr %15, align 4, !tbaa !4
  %96 = load i32, ptr %14, align 4, !tbaa !4
  %97 = icmp slt i32 %95, %96
  br i1 %97, label %98, label %104

98:                                               ; preds = %94
  %99 = load i32, ptr %15, align 4, !tbaa !4
  %100 = load i32, ptr %16, align 4, !tbaa !4
  %101 = load i32, ptr %14, align 4, !tbaa !4
  %102 = load i32, ptr %16, align 4, !tbaa !4
  %103 = load ptr, ptr %13, align 8, !tbaa !39
  call void @render_line(i32 noundef %99, i32 noundef %100, i32 noundef %101, i32 noundef %102, ptr noundef %103)
  br label %104

104:                                              ; preds = %98, %94
  call void @llvm.lifetime.end.p0(i64 4, ptr %17) #6
  call void @llvm.lifetime.end.p0(i64 4, ptr %16) #6
  call void @llvm.lifetime.end.p0(i64 4, ptr %15) #6
  ret void

105:                                              ; preds = %88
  unreachable
}