; Function Attrs: nofree norecurse nosync nounwind memory(argmem: readwrite) uwtable
define void @ff_vorbis_floor1_render_list(ptr noundef readonly captures(none) %0, i32 noundef %1, ptr noundef readonly captures(none) %2, ptr noundef readonly captures(none) %3, i32 noundef %4, ptr noundef writeonly captures(none) %5, i32 noundef %6) local_unnamed_addr #2 {
  %8 = load i16, ptr %2, align 2, !tbaa !29
  %9 = zext i16 %8 to i32
  %10 = mul nsw i32 %4, %9
  %11 = icmp sgt i32 %1, 1
  br i1 %11, label %.lr.ph.preheader, label %._crit_edge

.lr.ph.preheader:                                 ; preds = %7
  %wide.trip.count = zext nneg i32 %1 to i64
  br label %.lr.ph

.lr.ph:                                           ; preds = %28, %.lr.ph.preheader
  %indvars.iv = phi i64 [ 1, %.lr.ph.preheader ], [ %indvars.iv.next, %28 ]
  %.03545 = phi i32 [ 0, %.lr.ph.preheader ], [ %.2, %28 ]
  %.03644 = phi i32 [ %10, %.lr.ph.preheader ], [ %.238, %28 ]
  %12 = getelementptr inbounds nuw %struct.vorbis_floor1_entry, ptr %0, i64 %indvars.iv, i32 1
  %13 = load i16, ptr %12, align 2, !tbaa !19
  %14 = zext i16 %13 to i64
  %15 = getelementptr inbounds nuw i32, ptr %3, i64 %14
  %16 = load i32, ptr %15, align 4, !tbaa !11
  %.not = icmp eq i32 %16, 0
  br i1 %.not, label %28, label %17

17:                                               ; preds = %.lr.ph
  %18 = getelementptr inbounds nuw %struct.vorbis_floor1_entry, ptr %0, i64 %14
  %19 = load i16, ptr %18, align 2, !tbaa !24
  %20 = zext i16 %19 to i32
  %21 = getelementptr inbounds nuw i16, ptr %2, i64 %14
  %22 = load i16, ptr %21, align 2, !tbaa !29
  %23 = zext i16 %22 to i32
  %24 = mul nsw i32 %4, %23
  %25 = icmp slt i32 %.03545, %6
  br i1 %25, label %26, label %28

26:                                               ; preds = %17
  %27 = tail call i32 @llvm.smin.i32(i32 %6, i32 %20)
  tail call fastcc void @render_line(i32 noundef %.03545, i32 noundef %.03644, i32 noundef %27, i32 noundef %24, ptr noundef %5)
  br label %28

28:                                               ; preds = %17, %26, %.lr.ph
  %.238 = phi i32 [ %.03644, %.lr.ph ], [ %24, %26 ], [ %24, %17 ]
  %.2 = phi i32 [ %.03545, %.lr.ph ], [ %20, %26 ], [ %20, %17 ]
  %.not42 = icmp sge i32 %.2, %6
  %indvars.iv.next = add nuw nsw i64 %indvars.iv, 1
  %exitcond.not = icmp eq i64 %indvars.iv.next, %wide.trip.count
  %or.cond = select i1 %.not42, i1 true, i1 %exitcond.not
  br i1 %or.cond, label %._crit_edge, label %.lr.ph, !llvm.loop !30

._crit_edge:                                      ; preds = %28, %7
  %.137 = phi i32 [ %10, %7 ], [ %.238, %28 ]
  %.1 = phi i32 [ 0, %7 ], [ %.2, %28 ]
  %29 = icmp slt i32 %.1, %6
  br i1 %29, label %30, label %31

30:                                               ; preds = %._crit_edge
  tail call fastcc void @render_line(i32 noundef %.1, i32 noundef %.137, i32 noundef %6, i32 noundef %.137, ptr noundef %5)
  br label %31

31:                                               ; preds = %30, %._crit_edge
  ret void
}